target datalayout = "e-m:e-p270:32:32-p271:32:32-p272:64:64-i64:64-i128:128-f80:128-n8:16:32:64-S128"
target triple = "x86_64-pc-linux-gnu"

%struct.z_stream_s = type { ptr, i32, i64, ptr, i32, i64, ptr, ptr, ptr, ptr, ptr, i32, i64, i64 }
%struct.scan_ctx = type { ptr, i64, ptr, i64, ptr, i64, i64, [40 x i8], [160 x i8], i8 }

@.str = private unnamed_addr constant [7 x i8] c"1.2.11\00", align 1

; Function Attrs: nounwind uwtable
define dso_local void @showhelp(ptr noundef %0, ptr noundef %1, ptr noundef %2) #0 {
  %4 = alloca ptr, align 8
  %5 = alloca ptr, align 8
  %6 = alloca ptr, align 8
  %7 = alloca ptr, align 8
  %8 = alloca i32, align 4
  %9 = alloca %struct.z_stream_s, align 8
  %10 = alloca %struct.scan_ctx, align 8
  %11 = alloca i32, align 4
  %12 = alloca i64, align 8
  store ptr %0, ptr %4, align 8, !tbaa !16
  store ptr %1, ptr %5, align 8, !tbaa !16
  store ptr %2, ptr %6, align 8, !tbaa !16
  call void @llvm.lifetime.start.p0(i64 8, ptr %7) #7
  call void @llvm.lifetime.start.p0(i64 4, ptr %8) #7
  call void @llvm.lifetime.start.p0(i64 112, ptr %9) #7
  call void @llvm.lifetime.start.p0(i64 264, ptr %10) #7
  %13 = load ptr, ptr %4, align 8, !tbaa !16
  %14 = load ptr, ptr %5, align 8, !tbaa !16
  %15 = load ptr, ptr %6, align 8, !tbaa !16
  call void @inithelpscan(ptr noundef %10, ptr noundef %13, ptr noundef %14, ptr noundef %15)
  call void @llvm.memset.p0.i64(ptr align 8 %9, i8 0, i64 112, i1 false)
  %16 = getelementptr inbounds nuw %struct.z_stream_s, ptr %9, i32 0, i32 8
  store ptr @zalloc_func, ptr %16, align 8, !tbaa !4
  %17 = getelementptr inbounds nuw %struct.z_stream_s, ptr %9, i32 0, i32 9
  store ptr @zfree_func, ptr %17, align 8, !tbaa !13
  %18 = getelementptr inbounds nuw %struct.z_stream_s, ptr %9, i32 0, i32 1
  store i32 76512, ptr %18, align 8, !tbaa !14
  %19 = getelementptr inbounds nuw %struct.z_stream_s, ptr %9, i32 0, i32 0
  store ptr getelementptr inbounds (i8, ptr @hugehelpgz, i64 10), ptr %19, align 8, !tbaa !15
  %20 = call i32 @inflateInit2_(ptr noundef %9, i32 noundef -15, ptr noundef @.str, i32 noundef 112)
  %21 = icmp ne i32 %20, 0
  br i1 %21, label %22, label %23

22:                                               ; preds = %3
  store i32 1, ptr %11, align 4
  br label %62

23:                                               ; preds = %3
  %24 = call noalias ptr @malloc(i64 noundef 65536) #8
  store ptr %24, ptr %7, align 8, !tbaa !16
  %25 = load ptr, ptr %7, align 8, !tbaa !16
  %26 = icmp ne ptr %25, null
  br i1 %26, label %27, label %60

27:                                               ; preds = %23
  br label %28

28:                                               ; preds = %57, %27
  br label %29

29:                                               ; preds = %28
  %30 = getelementptr inbounds nuw %struct.z_stream_s, ptr %9, i32 0, i32 4
  store i32 65536, ptr %30, align 8, !tbaa !17
  %31 = load ptr, ptr %7, align 8, !tbaa !16
  %32 = getelementptr inbounds nuw %struct.z_stream_s, ptr %9, i32 0, i32 3
  store ptr %31, ptr %32, align 8, !tbaa !18
  %33 = call i32 @inflate(ptr noundef %9, i32 noundef 2)
  store i32 %33, ptr %8, align 4, !tbaa !19
  %34 = load i32, ptr %8, align 4, !tbaa !19
  %35 = icmp eq i32 %34, 0
  br i1 %35, label %39, label %36

36:                                               ; preds = %29
  %37 = load i32, ptr %8, align 4, !tbaa !19
  %38 = icmp eq i32 %37, 1
  br i1 %38, label %39, label %56

39:                                               ; preds = %36, %29
  call void @llvm.lifetime.start.p0(i64 8, ptr %12) #7
  %40 = getelementptr inbounds nuw %struct.z_stream_s, ptr %9, i32 0, i32 4
  %41 = load i32, ptr %40, align 8, !tbaa !17
  %42 = sub i32 65536, %41
  %43 = zext i32 %42 to i64
  store i64 %43, ptr %12, align 8, !tbaa !23
  %44 = load ptr, ptr %7, align 8, !tbaa !16
  %45 = load i64, ptr %12, align 8, !tbaa !23
  %46 = call zeroext i1 @helpscan(ptr noundef %44, i64 noundef %45, ptr noundef %10)
  br i1 %46, label %48, label %47

47:                                               ; preds = %39
  store i32 3, ptr %11, align 4
  br label %53

48:                                               ; preds = %39
  %49 = load i32, ptr %8, align 4, !tbaa !19
  %50 = icmp eq i32 %49, 1
  br i1 %50, label %51, label %52

51:                                               ; preds = %48
  store i32 3, ptr %11, align 4
  br label %53

52:                                               ; preds = %48
  store i32 0, ptr %11, align 4
  br label %53

53:                                               ; preds = %52, %51, %47
  call void @llvm.lifetime.end.p0(i64 8, ptr %12) #7
  %54 = load i32, ptr %11, align 4
  switch i32 %54, label %65 [
    i32 0, label %55
    i32 3, label %58
  ]

55:                                               ; preds = %53
  br label %57

56:                                               ; preds = %36
  br label %58

57:                                               ; preds = %55
  br label %28

58:                                               ; preds = %56, %53
  %59 = load ptr, ptr %7, align 8, !tbaa !16
  call void @free(ptr noundef %59) #7
  br label %60

60:                                               ; preds = %58, %23
  %61 = call i32 @inflateEnd(ptr noundef %9)
  store i32 0, ptr %11, align 4
  br label %62

62:                                               ; preds = %60, %22
  call void @llvm.lifetime.end.p0(i64 264, ptr %10) #7
  call void @llvm.lifetime.end.p0(i64 112, ptr %9) #7
  call void @llvm.lifetime.end.p0(i64 4, ptr %8) #7
  call void @llvm.lifetime.end.p0(i64 8, ptr %7) #7
  %63 = load i32, ptr %11, align 4
  switch i32 %63, label %65 [
    i32 0, label %64
    i32 1, label %64
  ]

64:                                               ; preds = %62, %62
  ret void

65:                                               ; preds = %62, %53
  unreachable
}