; Function Attrs: nounwind uwtable
define dso_local void @showhelp(ptr noundef %0, ptr noundef %1, ptr noundef %2) local_unnamed_addr #0 {
  %4 = alloca %struct.z_stream_s, align 8
  %5 = alloca %struct.scan_ctx, align 8
  call void @llvm.lifetime.start.p0(i64 112, ptr nonnull %4) #10
  call void @llvm.lifetime.start.p0(i64 264, ptr nonnull %5) #10
  call void @inithelpscan(ptr noundef nonnull %5, ptr noundef %0, ptr noundef %1, ptr noundef %2) #10
  %6 = getelementptr inbounds nuw i8, ptr %4, i64 8
  call void @llvm.memset.p0.i64(ptr noundef nonnull align 8 dereferenceable(112) %6, i8 0, i64 104, i1 false)
  %7 = getelementptr inbounds nuw i8, ptr %4, i64 64
  store ptr @zalloc_func, ptr %7, align 8, !tbaa !4
  %8 = getelementptr inbounds nuw i8, ptr %4, i64 72
  store ptr @zfree_func, ptr %8, align 8, !tbaa !13
  %9 = getelementptr inbounds nuw i8, ptr %4, i64 8
  store i32 76512, ptr %9, align 8, !tbaa !14
  store ptr getelementptr inbounds nuw (i8, ptr @hugehelpgz, i64 10), ptr %4, align 8, !tbaa !15
  %10 = call i32 @inflateInit2_(ptr noundef nonnull %4, i32 noundef -15, ptr noundef nonnull @.str, i32 noundef 112) #10
  %.not = icmp eq i32 %10, 0
  br i1 %.not, label %11, label %26

11:                                               ; preds = %3
  %12 = call noalias dereferenceable_or_null(65536) ptr @malloc(i64 noundef 65536) #11
  %.not12 = icmp eq ptr %12, null
  br i1 %.not12, label %24, label %.preheader

.preheader:                                       ; preds = %11
  %13 = getelementptr inbounds nuw i8, ptr %4, i64 32
  %14 = getelementptr inbounds nuw i8, ptr %4, i64 24
  br label %15

15:                                               ; preds = %.preheader, %17
  store i32 65536, ptr %13, align 8, !tbaa !16
  store ptr %12, ptr %14, align 8, !tbaa !17
  %16 = call i32 @inflate(ptr noundef nonnull %4, i32 noundef 2) #10
  %or.cond = icmp ult i32 %16, 2
  br i1 %or.cond, label %17, label %23

17:                                               ; preds = %15
  %18 = icmp ne i32 %16, 1
  %19 = load i32, ptr %13, align 8, !tbaa !16
  %20 = sub i32 65536, %19
  %21 = zext i32 %20 to i64
  %22 = call zeroext i1 @helpscan(ptr noundef nonnull %12, i64 noundef %21, ptr noundef nonnull %5) #10
  %switch = and i1 %18, %22
  br i1 %switch, label %15, label %23

23:                                               ; preds = %17, %15
  call void @free(ptr noundef %12) #10
  br label %24

24:                                               ; preds = %23, %11
  %25 = call i32 @inflateEnd(ptr noundef nonnull %4) #10
  br label %26

26:                                               ; preds = %3, %24
  call void @llvm.lifetime.end.p0(i64 264, ptr nonnull %5) #10
  call void @llvm.lifetime.end.p0(i64 112, ptr nonnull %4) #10
  ret void
}